target datalayout = "e-m:e-p270:32:32-p271:32:32-p272:64:64-i64:64-i128:128-f80:128-n8:16:32:64-S128"
target triple = "x86_64-pc-linux-gnu"

%struct.lazyenum_funcs = type { ptr, ptr, ptr }

@rb_eArgError = external global i64, align 8
@.str.128 = private unnamed_addr constant [46 x i8] c"tried to call lazy filter_map without a block\00", align 1
@lazy_filter_map_funcs = internal constant %struct.lazyenum_funcs { ptr @lazy_filter_map_proc, ptr null, ptr null }, align 8

; Function Attrs: nounwind sspstrong uwtable
define internal i64 @lazy_filter_map(i64 noundef %0) #0 {
  %2 = alloca i64, align 8
  store i64 %0, ptr %2, align 8, !tbaa !7
  %3 = call i32 @rb_block_given_p()
  %4 = icmp ne i32 %3, 0
  br i1 %4, label %7, label %5

5:                                                ; preds = %1
  %6 = load i64, ptr @rb_eArgError, align 8, !tbaa !7
  call void (i64, ptr, ...) @rb_raise(i64 noundef %6, ptr noundef @.str.128) #25
  unreachable

7:                                                ; preds = %1
  %8 = load i64, ptr %2, align 8, !tbaa !7
  %9 = call i64 @lazy_add_method(i64 noundef %8, i32 noundef 0, ptr noundef null, i64 noundef 4, i64 noundef 4, ptr noundef @lazy_filter_map_funcs)
  ret i64 %9
}